; ModuleID = '46/2590.c'
source_filename = "46/2590.c"
target datalayout = "e-m:e-p270:32:32-p271:32:32-p272:64:64-i64:64-f80:128-n8:16:32:64-S128"
target triple = "x86_64-pc-linux-gnu"

@.str = private unnamed_addr constant [5 x i8] c"%d%d\00", align 1
@.str.1 = private unnamed_addr constant [3 x i8] c"%d\00", align 1
@.str.2 = private unnamed_addr constant [4 x i8] c"%d\0A\00", align 1

; Function Attrs: noinline nounwind uwtable
define dso_local i32 @main() #0 {
  %1 = alloca i32, align 4
  %2 = alloca i32, align 4
  %3 = alloca i32, align 4
  %4 = alloca i32, align 4
  %5 = alloca i32, align 4
  %6 = alloca i32, align 4
  %7 = alloca [101 x [101 x i32]], align 16
  store i32 0, i32* %1, align 4
  store i32 0, i32* %6, align 4
  %8 = bitcast [101 x [101 x i32]]* %7 to i8*
  call void @llvm.memset.p0i8.i64(i8* align 16 %8, i8 0, i64 40804, i1 false)
  %9 = call i32 (i8*, ...) @__isoc99_scanf(i8* getelementptr inbounds ([5 x i8], [5 x i8]* @.str, i64 0, i64 0), i32* %2, i32* %3)
  store i32 1, i32* %4, align 4
  br label %10

10:                                               ; preds = %31, %0
  %11 = load i32, i32* %4, align 4
  %12 = load i32, i32* %2, align 4
  %13 = icmp sle i32 %11, %12
  br i1 %13, label %14, label %34

14:                                               ; preds = %10
  store i32 1, i32* %5, align 4
  br label %15

15:                                               ; preds = %27, %14
  %16 = load i32, i32* %5, align 4
  %17 = load i32, i32* %3, align 4
  %18 = icmp sle i32 %16, %17
  br i1 %18, label %19, label %30

19:                                               ; preds = %15
  %20 = load i32, i32* %4, align 4
  %21 = sext i32 %20 to i64
  %22 = getelementptr inbounds [101 x [101 x i32]], [101 x [101 x i32]]* %7, i64 0, i64 %21
  %23 = load i32, i32* %5, align 4
  %24 = sext i32 %23 to i64
  %25 = getelementptr inbounds [101 x i32], [101 x i32]* %22, i64 0, i64 %24
  %26 = call i32 (i8*, ...) @__isoc99_scanf(i8* getelementptr inbounds ([3 x i8], [3 x i8]* @.str.1, i64 0, i64 0), i32* %25)
  br label %27

27:                                               ; preds = %19
  %28 = load i32, i32* %5, align 4
  %29 = add nsw i32 %28, 1
  store i32 %29, i32* %5, align 4
  br label %15

30:                                               ; preds = %15
  br label %31

31:                                               ; preds = %30
  %32 = load i32, i32* %4, align 4
  %33 = add nsw i32 %32, 1
  store i32 %33, i32* %4, align 4
  br label %10

34:                                               ; preds = %10
  store i32 0, i32* %4, align 4
  store i32 0, i32* %5, align 4
  br label %35

35:                                               ; preds = %203, %34
  %36 = load i32, i32* %4, align 4
  %37 = add nsw i32 %36, 1
  store i32 %37, i32* %4, align 4
  %38 = load i32, i32* %5, align 4
  %39 = add nsw i32 %38, 1
  store i32 %39, i32* %5, align 4
  br label %40

40:                                               ; preds = %67, %35
  %41 = load i32, i32* %4, align 4
  %42 = sext i32 %41 to i64
  %43 = getelementptr inbounds [101 x [101 x i32]], [101 x [101 x i32]]* %7, i64 0, i64 %42
  %44 = load i32, i32* %5, align 4
  %45 = sext i32 %44 to i64
  %46 = getelementptr inbounds [101 x i32], [101 x i32]* %43, i64 0, i64 %45
  %47 = load i32, i32* %46, align 4
  %48 = icmp eq i32 %47, 0
  br i1 %48, label %49, label %50

49:                                               ; preds = %40
  br label %70

50:                                               ; preds = %40
  %51 = load i32, i32* %4, align 4
  %52 = sext i32 %51 to i64
  %53 = getelementptr inbounds [101 x [101 x i32]], [101 x [101 x i32]]* %7, i64 0, i64 %52
  %54 = load i32, i32* %5, align 4
  %55 = sext i32 %54 to i64
  %56 = getelementptr inbounds [101 x i32], [101 x i32]* %53, i64 0, i64 %55
  %57 = load i32, i32* %56, align 4
  %58 = call i32 (i8*, ...) @printf(i8* getelementptr inbounds ([4 x i8], [4 x i8]* @.str.2, i64 0, i64 0), i32 %57)
  %59 = load i32, i32* %6, align 4
  %60 = add nsw i32 %59, 1
  store i32 %60, i32* %6, align 4
  %61 = load i32, i32* %4, align 4
  %62 = sext i32 %61 to i64
  %63 = getelementptr inbounds [101 x [101 x i32]], [101 x [101 x i32]]* %7, i64 0, i64 %62
  %64 = load i32, i32* %5, align 4
  %65 = sext i32 %64 to i64
  %66 = getelementptr inbounds [101 x i32], [101 x i32]* %63, i64 0, i64 %65
  store i32 0, i32* %66, align 4
  br label %67

67:                                               ; preds = %50
  %68 = load i32, i32* %5, align 4
  %69 = add nsw i32 %68, 1
  store i32 %69, i32* %5, align 4
  br label %40

70:                                               ; preds = %49
  %71 = load i32, i32* %6, align 4
  %72 = load i32, i32* %2, align 4
  %73 = load i32, i32* %3, align 4
  %74 = mul nsw i32 %72, %73
  %75 = icmp eq i32 %71, %74
  br i1 %75, label %76, label %77

76:                                               ; preds = %70
  br label %204

77:                                               ; preds = %70
  %78 = load i32, i32* %5, align 4
  %79 = sub nsw i32 %78, 1
  store i32 %79, i32* %5, align 4
  %80 = load i32, i32* %4, align 4
  %81 = add nsw i32 %80, 1
  store i32 %81, i32* %4, align 4
  br label %82

82:                                               ; preds = %109, %77
  %83 = load i32, i32* %4, align 4
  %84 = sext i32 %83 to i64
  %85 = getelementptr inbounds [101 x [101 x i32]], [101 x [101 x i32]]* %7, i64 0, i64 %84
  %86 = load i32, i32* %5, align 4
  %87 = sext i32 %86 to i64
  %88 = getelementptr inbounds [101 x i32], [101 x i32]* %85, i64 0, i64 %87
  %89 = load i32, i32* %88, align 4
  %90 = icmp eq i32 %89, 0
  br i1 %90, label %91, label %92

91:                                               ; preds = %82
  br label %112

92:                                               ; preds = %82
  %93 = load i32, i32* %4, align 4
  %94 = sext i32 %93 to i64
  %95 = getelementptr inbounds [101 x [101 x i32]], [101 x [101 x i32]]* %7, i64 0, i64 %94
  %96 = load i32, i32* %5, align 4
  %97 = sext i32 %96 to i64
  %98 = getelementptr inbounds [101 x i32], [101 x i32]* %95, i64 0, i64 %97
  %99 = load i32, i32* %98, align 4
  %100 = call i32 (i8*, ...) @printf(i8* getelementptr inbounds ([4 x i8], [4 x i8]* @.str.2, i64 0, i64 0), i32 %99)
  %101 = load i32, i32* %6, align 4
  %102 = add nsw i32 %101, 1
  store i32 %102, i32* %6, align 4
  %103 = load i32, i32* %4, align 4
  %104 = sext i32 %103 to i64
  %105 = getelementptr inbounds [101 x [101 x i32]], [101 x [101 x i32]]* %7, i64 0, i64 %104
  %106 = load i32, i32* %5, align 4
  %107 = sext i32 %106 to i64
  %108 = getelementptr inbounds [101 x i32], [101 x i32]* %105, i64 0, i64 %107
  store i32 0, i32* %108, align 4
  br label %109

109:                                              ; preds = %92
  %110 = load i32, i32* %4, align 4
  %111 = add nsw i32 %110, 1
  store i32 %111, i32* %4, align 4
  br label %82

112:                                              ; preds = %91
  %113 = load i32, i32* %6, align 4
  %114 = load i32, i32* %2, align 4
  %115 = load i32, i32* %3, align 4
  %116 = mul nsw i32 %114, %115
  %117 = icmp eq i32 %113, %116
  br i1 %117, label %118, label %119

118:                                              ; preds = %112
  br label %204

119:                                              ; preds = %112
  %120 = load i32, i32* %4, align 4
  %121 = add nsw i32 %120, -1
  store i32 %121, i32* %4, align 4
  %122 = load i32, i32* %5, align 4
  %123 = add nsw i32 %122, -1
  store i32 %123, i32* %5, align 4
  br label %124

124:                                              ; preds = %151, %119
  %125 = load i32, i32* %4, align 4
  %126 = sext i32 %125 to i64
  %127 = getelementptr inbounds [101 x [101 x i32]], [101 x [101 x i32]]* %7, i64 0, i64 %126
  %128 = load i32, i32* %5, align 4
  %129 = sext i32 %128 to i64
  %130 = getelementptr inbounds [101 x i32], [101 x i32]* %127, i64 0, i64 %129
  %131 = load i32, i32* %130, align 4
  %132 = icmp eq i32 %131, 0
  br i1 %132, label %133, label %134

133:                                              ; preds = %124
  br label %154

134:                                              ; preds = %124
  %135 = load i32, i32* %4, align 4
  %136 = sext i32 %135 to i64
  %137 = getelementptr inbounds [101 x [101 x i32]], [101 x [101 x i32]]* %7, i64 0, i64 %136
  %138 = load i32, i32* %5, align 4
  %139 = sext i32 %138 to i64
  %140 = getelementptr inbounds [101 x i32], [101 x i32]* %137, i64 0, i64 %139
  %141 = load i32, i32* %140, align 4
  %142 = call i32 (i8*, ...) @printf(i8* getelementptr inbounds ([4 x i8], [4 x i8]* @.str.2, i64 0, i64 0), i32 %141)
  %143 = load i32, i32* %6, align 4
  %144 = add nsw i32 %143, 1
  store i32 %144, i32* %6, align 4
  %145 = load i32, i32* %4, align 4
  %146 = sext i32 %145 to i64
  %147 = getelementptr inbounds [101 x [101 x i32]], [101 x [101 x i32]]* %7, i64 0, i64 %146
  %148 = load i32, i32* %5, align 4
  %149 = sext i32 %148 to i64
  %150 = getelementptr inbounds [101 x i32], [101 x i32]* %147, i64 0, i64 %149
  store i32 0, i32* %150, align 4
  br label %151

151:                                              ; preds = %134
  %152 = load i32, i32* %5, align 4
  %153 = add nsw i32 %152, -1
  store i32 %153, i32* %5, align 4
  br label %124

154:                                              ; preds = %133
  %155 = load i32, i32* %6, align 4
  %156 = load i32, i32* %2, align 4
  %157 = load i32, i32* %3, align 4
  %158 = mul nsw i32 %156, %157
  %159 = icmp eq i32 %155, %158
  br i1 %159, label %160, label %161

160:                                              ; preds = %154
  br label %204

161:                                              ; preds = %154
  %162 = load i32, i32* %5, align 4
  %163 = add nsw i32 %162, 1
  store i32 %163, i32* %5, align 4
  %164 = load i32, i32* %4, align 4
  %165 = add nsw i32 %164, -1
  store i32 %165, i32* %4, align 4
  br label %166

166:                                              ; preds = %193, %161
  %167 = load i32, i32* %4, align 4
  %168 = sext i32 %167 to i64
  %169 = getelementptr inbounds [101 x [101 x i32]], [101 x [101 x i32]]* %7, i64 0, i64 %168
  %170 = load i32, i32* %5, align 4
  %171 = sext i32 %170 to i64
  %172 = getelementptr inbounds [101 x i32], [101 x i32]* %169, i64 0, i64 %171
  %173 = load i32, i32* %172, align 4
  %174 = icmp eq i32 %173, 0
  br i1 %174, label %175, label %176

175:                                              ; preds = %166
  br label %196

176:                                              ; preds = %166
  %177 = load i32, i32* %4, align 4
  %178 = sext i32 %177 to i64
  %179 = getelementptr inbounds [101 x [101 x i32]], [101 x [101 x i32]]* %7, i64 0, i64 %178
  %180 = load i32, i32* %5, align 4
  %181 = sext i32 %180 to i64
  %182 = getelementptr inbounds [101 x i32], [101 x i32]* %179, i64 0, i64 %181
  %183 = load i32, i32* %182, align 4
  %184 = call i32 (i8*, ...) @printf(i8* getelementptr inbounds ([4 x i8], [4 x i8]* @.str.2, i64 0, i64 0), i32 %183)
  %185 = load i32, i32* %6, align 4
  %186 = add nsw i32 %185, 1
  store i32 %186, i32* %6, align 4
  %187 = load i32, i32* %4, align 4
  %188 = sext i32 %187 to i64
  %189 = getelementptr inbounds [101 x [101 x i32]], [101 x [101 x i32]]* %7, i64 0, i64 %188
  %190 = load i32, i32* %5, align 4
  %191 = sext i32 %190 to i64
  %192 = getelementptr inbounds [101 x i32], [101 x i32]* %189, i64 0, i64 %191
  store i32 0, i32* %192, align 4
  br label %193

193:                                              ; preds = %176
  %194 = load i32, i32* %4, align 4
  %195 = add nsw i32 %194, -1
  store i32 %195, i32* %4, align 4
  br label %166

196:                                              ; preds = %175
  %197 = load i32, i32* %6, align 4
  %198 = load i32, i32* %2, align 4
  %199 = load i32, i32* %3, align 4
  %200 = mul nsw i32 %198, %199
  %201 = icmp eq i32 %197, %200
  br i1 %201, label %202, label %203

202:                                              ; preds = %196
  br label %204

203:                                              ; preds = %196
  br label %35

204:                                              ; preds = %202, %160, %118, %76
  ret i32 0
}

; Function Attrs: argmemonly nounwind willreturn
declare void @llvm.memset.p0i8.i64(i8* nocapture writeonly, i8, i64, i1 immarg) #1

declare dso_local i32 @__isoc99_scanf(i8*, ...) #2

declare dso_local i32 @printf(i8*, ...) #2


!llvm.module.flags = !{!0}
!llvm.ident = !{!1}

!0 = !{i32 1, !"wchar_size", i32 4}
!1 = !{!"clang version 10.0.0-4ubuntu1 "}
